target datalayout = "e-m:e-p270:32:32-p271:32:32-p272:64:64-i64:64-i128:128-f80:128-n8:16:32:64-S128"
target triple = "x86_64-pc-linux-gnu"

; Function Attrs: nounwind uwtable
define i32 @Map_CompareNodesByPointer(ptr noundef %0, ptr noundef %1) #0 {
  %3 = alloca i32, align 4
  %4 = alloca ptr, align 8
  %5 = alloca ptr, align 8
  store ptr %0, ptr %4, align 8, !tbaa !73
  store ptr %1, ptr %5, align 8, !tbaa !73
  %6 = load ptr, ptr %4, align 8, !tbaa !73
  %7 = load ptr, ptr %6, align 8, !tbaa !3
  %8 = load ptr, ptr %5, align 8, !tbaa !73
  %9 = load ptr, ptr %8, align 8, !tbaa !3
  %10 = icmp ult ptr %7, %9
  br i1 %10, label %11, label %12

11:                                               ; preds = %2
  store i32 -1, ptr %3, align 4
  br label %20

12:                                               ; preds = %2
  %13 = load ptr, ptr %4, align 8, !tbaa !73
  %14 = load ptr, ptr %13, align 8, !tbaa !3
  %15 = load ptr, ptr %5, align 8, !tbaa !73
  %16 = load ptr, ptr %15, align 8, !tbaa !3
  %17 = icmp ugt ptr %14, %16
  br i1 %17, label %18, label %19

18:                                               ; preds = %12
  store i32 1, ptr %3, align 4
  br label %20

19:                                               ; preds = %12
  store i32 0, ptr %3, align 4
  br label %20

20:                                               ; preds = %19, %18, %11
  %21 = load i32, ptr %3, align 4
  ret i32 %21
}