; Function Attrs: mustprogress nofree norecurse nosync nounwind willreturn memory(argmem: read) uwtable
define range(i32 -1, 2) i32 @Map_CompareNodesByPointer(ptr noundef readonly captures(none) %0, ptr noundef readonly captures(none) %1) local_unnamed_addr #10 {
  %3 = load ptr, ptr %0, align 8, !tbaa !31
  %4 = load ptr, ptr %1, align 8, !tbaa !31
  %5 = icmp ult ptr %3, %4
  %6 = icmp ugt ptr %3, %4
  %. = zext i1 %6 to i32
  %.0 = select i1 %5, i32 -1, i32 %.
  ret i32 %.0
}